target datalayout = "e-m:e-p270:32:32-p271:32:32-p272:64:64-i64:64-i128:128-f80:128-n8:16:32:64-S128"
target triple = "x86_64-pc-linux-gnu"

%struct.ml_dsa_gen_ctx = type { ptr, ptr, [32 x i8], i64 }

@.str.3 = private unnamed_addr constant [60 x i8] c"../openssl/providers/implementations/keymgmt/ml_dsa_kmgmt.c\00", align 1
@.str.5 = private unnamed_addr constant [5 x i8] c"seed\00", align 1
@.str.15 = private unnamed_addr constant [11 x i8] c"properties\00", align 1

; Function Attrs: nounwind uwtable
define internal i32 @ml_dsa_gen_set_params(ptr noundef %0, ptr noundef %1) #0 {
  %3 = alloca i32, align 4
  %4 = alloca ptr, align 8
  %5 = alloca ptr, align 8
  %6 = alloca ptr, align 8
  %7 = alloca ptr, align 8
  %8 = alloca i32, align 4
  %9 = alloca ptr, align 8
  %10 = alloca i64, align 8
  store ptr %0, ptr %4, align 8, !tbaa !3
  store ptr %1, ptr %5, align 8, !tbaa !11
  call void @llvm.lifetime.start.p0(i64 8, ptr %6) #5
  %11 = load ptr, ptr %4, align 8, !tbaa !3
  store ptr %11, ptr %6, align 8, !tbaa !18
  call void @llvm.lifetime.start.p0(i64 8, ptr %7) #5
  %12 = load ptr, ptr %6, align 8, !tbaa !18
  %13 = icmp eq ptr %12, null
  br i1 %13, label %14, label %15

14:                                               ; preds = %2
  store i32 0, ptr %3, align 4
  store i32 1, ptr %8, align 4
  br label %56

15:                                               ; preds = %2
  %16 = load ptr, ptr %5, align 8, !tbaa !11
  %17 = call ptr @OSSL_PARAM_locate_const(ptr noundef %16, ptr noundef @.str.5)
  store ptr %17, ptr %7, align 8, !tbaa !11
  %18 = load ptr, ptr %7, align 8, !tbaa !11
  %19 = icmp ne ptr %18, null
  br i1 %19, label %20, label %37

20:                                               ; preds = %15
  call void @llvm.lifetime.start.p0(i64 8, ptr %9) #5
  %21 = load ptr, ptr %6, align 8, !tbaa !18
  %22 = getelementptr inbounds nuw %struct.ml_dsa_gen_ctx, ptr %21, i32 0, i32 2
  %23 = getelementptr inbounds [32 x i8], ptr %22, i64 0, i64 0
  store ptr %23, ptr %9, align 8, !tbaa !3
  call void @llvm.lifetime.start.p0(i64 8, ptr %10) #5
  store i64 32, ptr %10, align 8, !tbaa !16
  %24 = load ptr, ptr %7, align 8, !tbaa !11
  %25 = load i64, ptr %10, align 8, !tbaa !16
  %26 = load ptr, ptr %6, align 8, !tbaa !18
  %27 = getelementptr inbounds nuw %struct.ml_dsa_gen_ctx, ptr %26, i32 0, i32 3
  %28 = call i32 @OSSL_PARAM_get_octet_string(ptr noundef %24, ptr noundef %9, i64 noundef %25, ptr noundef %27)
  %29 = icmp ne i32 %28, 0
  br i1 %29, label %33, label %30

30:                                               ; preds = %20
  %31 = load ptr, ptr %6, align 8, !tbaa !18
  %32 = getelementptr inbounds nuw %struct.ml_dsa_gen_ctx, ptr %31, i32 0, i32 3
  store i64 0, ptr %32, align 8, !tbaa !23
  store i32 0, ptr %3, align 4
  store i32 1, ptr %8, align 4
  br label %34

33:                                               ; preds = %20
  store i32 0, ptr %8, align 4
  br label %34

34:                                               ; preds = %33, %30
  call void @llvm.lifetime.end.p0(i64 8, ptr %10) #5
  call void @llvm.lifetime.end.p0(i64 8, ptr %9) #5
  %35 = load i32, ptr %8, align 4
  switch i32 %35, label %56 [
    i32 0, label %36
  ]

36:                                               ; preds = %34
  br label %37

37:                                               ; preds = %36, %15
  %38 = load ptr, ptr %5, align 8, !tbaa !11
  %39 = call ptr @OSSL_PARAM_locate_const(ptr noundef %38, ptr noundef @.str.15)
  store ptr %39, ptr %7, align 8, !tbaa !11
  %40 = load ptr, ptr %7, align 8, !tbaa !11
  %41 = icmp ne ptr %40, null
  br i1 %41, label %42, label %55

42:                                               ; preds = %37
  %43 = load ptr, ptr %6, align 8, !tbaa !18
  %44 = getelementptr inbounds nuw %struct.ml_dsa_gen_ctx, ptr %43, i32 0, i32 1
  %45 = load ptr, ptr %44, align 8, !tbaa !24
  call void @CRYPTO_free(ptr noundef %45, ptr noundef @.str.3, i32 noundef 473)
  %46 = load ptr, ptr %6, align 8, !tbaa !18
  %47 = getelementptr inbounds nuw %struct.ml_dsa_gen_ctx, ptr %46, i32 0, i32 1
  store ptr null, ptr %47, align 8, !tbaa !24
  %48 = load ptr, ptr %7, align 8, !tbaa !11
  %49 = load ptr, ptr %6, align 8, !tbaa !18
  %50 = getelementptr inbounds nuw %struct.ml_dsa_gen_ctx, ptr %49, i32 0, i32 1
  %51 = call i32 @OSSL_PARAM_get_utf8_string(ptr noundef %48, ptr noundef %50, i64 noundef 0)
  %52 = icmp ne i32 %51, 0
  br i1 %52, label %54, label %53

53:                                               ; preds = %42
  store i32 0, ptr %3, align 4
  store i32 1, ptr %8, align 4
  br label %56

54:                                               ; preds = %42
  br label %55

55:                                               ; preds = %54, %37
  store i32 1, ptr %3, align 4
  store i32 1, ptr %8, align 4
  br label %56

56:                                               ; preds = %55, %53, %34, %14
  call void @llvm.lifetime.end.p0(i64 8, ptr %7) #5
  call void @llvm.lifetime.end.p0(i64 8, ptr %6) #5
  %57 = load i32, ptr %3, align 4
  ret i32 %57
}