; Function Attrs: nounwind uwtable
define internal range(i32 0, 2) i32 @ml_dsa_gen_set_params(ptr noundef %0, ptr noundef %1) #0 {
  %3 = alloca ptr, align 8
  %4 = icmp eq ptr %0, null
  br i1 %4, label %19, label %5

5:                                                ; preds = %2
  %6 = tail call ptr @OSSL_PARAM_locate_const(ptr noundef %1, ptr noundef nonnull @.str.5) #6
  %.not = icmp eq ptr %6, null
  br i1 %.not, label %12, label %7

7:                                                ; preds = %5
  call void @llvm.lifetime.start.p0(i64 8, ptr nonnull %3) #6
  %8 = getelementptr inbounds nuw i8, ptr %0, i64 16
  store ptr %8, ptr %3, align 8, !tbaa !17
  %9 = getelementptr inbounds nuw i8, ptr %0, i64 48
  %10 = call i32 @OSSL_PARAM_get_octet_string(ptr noundef nonnull %6, ptr noundef nonnull %3, i64 noundef 32, ptr noundef nonnull %9) #6
  %.not20.not = icmp eq i32 %10, 0
  br i1 %.not20.not, label %11, label %.critedge

11:                                               ; preds = %7
  store i64 0, ptr %9, align 8, !tbaa !23
  call void @llvm.lifetime.end.p0(i64 8, ptr nonnull %3) #6
  br label %19

.critedge:                                        ; preds = %7
  call void @llvm.lifetime.end.p0(i64 8, ptr nonnull %3) #6
  br label %12

12:                                               ; preds = %.critedge, %5
  %13 = call ptr @OSSL_PARAM_locate_const(ptr noundef %1, ptr noundef nonnull @.str.15) #6
  %.not21 = icmp eq ptr %13, null
  br i1 %.not21, label %18, label %14

14:                                               ; preds = %12
  %15 = getelementptr inbounds nuw i8, ptr %0, i64 8
  %16 = load ptr, ptr %15, align 8, !tbaa !24
  call void @CRYPTO_free(ptr noundef %16, ptr noundef nonnull @.str.3, i32 noundef 473) #6
  store ptr null, ptr %15, align 8, !tbaa !24
  %17 = call i32 @OSSL_PARAM_get_utf8_string(ptr noundef nonnull %13, ptr noundef nonnull %15, i64 noundef 0) #6
  %.not22 = icmp eq i32 %17, 0
  br i1 %.not22, label %19, label %18

18:                                               ; preds = %14, %12
  br label %19

19:                                               ; preds = %11, %14, %2, %18
  %.0 = phi i32 [ 1, %18 ], [ 0, %11 ], [ 0, %2 ], [ 0, %14 ]
  ret i32 %.0
}